; ModuleID = 'source-C-CXX/51/3932.c'
source_filename = "source-C-CXX/51/3932.c"
target datalayout = "e-m:e-p270:32:32-p271:32:32-p272:64:64-i64:64-f80:128-n8:16:32:64-S128"
target triple = "x86_64-pc-linux-gnu"

%struct._IO_FILE = type { i32, i8*, i8*, i8*, i8*, i8*, i8*, i8*, i8*, i8*, i8*, i8*, %struct._IO_marker*, %struct._IO_FILE*, i32, i32, i64, i16, i8, [1 x i8], i8*, i64, %struct._IO_codecvt*, %struct._IO_wide_data*, %struct._IO_FILE*, i8*, i64, i32, [20 x i8] }
%struct._IO_marker = type opaque
%struct._IO_codecvt = type opaque
%struct._IO_wide_data = type opaque

@.str = private unnamed_addr constant [6 x i8] c"%d %d\00", align 1
@.str.1 = private unnamed_addr constant [3 x i8] c"%d\00", align 1
@.str.2 = private unnamed_addr constant [4 x i8] c" %d\00", align 1
@stdin = external local_unnamed_addr global %struct._IO_FILE*, align 8

; Function Attrs: nofree nounwind sspstrong uwtable
define dso_local i32 @main() local_unnamed_addr #0 {
  %1 = alloca i32, align 4
  %2 = alloca i32, align 4
  %3 = alloca [100 x i32], align 16
  %4 = bitcast i32* %1 to i8*
  call void @llvm.lifetime.start.p0i8(i64 4, i8* nonnull %4) #3
  %5 = bitcast i32* %2 to i8*
  call void @llvm.lifetime.start.p0i8(i64 4, i8* nonnull %5) #3
  %6 = call i32 (i8*, ...) @__isoc99_scanf(i8* getelementptr inbounds ([6 x i8], [6 x i8]* @.str, i64 0, i64 0), i32* nonnull %1, i32* nonnull %2)
  %7 = bitcast [100 x i32]* %3 to i8*
  call void @llvm.lifetime.start.p0i8(i64 400, i8* nonnull %7) #3
  %8 = load i32, i32* %1, align 4, !tbaa !5
  %9 = icmp sgt i32 %8, 0
  br i1 %9, label %10, label %18

10:                                               ; preds = %0, %10
  %11 = phi i64 [ %14, %10 ], [ 0, %0 ]
  %12 = getelementptr inbounds [100 x i32], [100 x i32]* %3, i64 0, i64 %11
  %13 = call i32 (i8*, ...) @__isoc99_scanf(i8* getelementptr inbounds ([3 x i8], [3 x i8]* @.str.1, i64 0, i64 0), i32* nonnull %12)
  %14 = add nuw nsw i64 %11, 1
  %15 = load i32, i32* %1, align 4, !tbaa !5
  %16 = sext i32 %15 to i64
  %17 = icmp slt i64 %14, %16
  br i1 %17, label %10, label %18, !llvm.loop !9

18:                                               ; preds = %10, %0
  %19 = phi i32 [ %8, %0 ], [ %15, %10 ]
  %20 = load i32, i32* %2, align 4, !tbaa !5
  %21 = sub nsw i32 %19, %20
  %22 = sext i32 %21 to i64
  %23 = getelementptr inbounds [100 x i32], [100 x i32]* %3, i64 0, i64 %22
  %24 = load i32, i32* %23, align 4, !tbaa !5
  %25 = call i32 (i8*, ...) @printf(i8* nonnull dereferenceable(1) getelementptr inbounds ([3 x i8], [3 x i8]* @.str.1, i64 0, i64 0), i32 %24)
  %26 = load i32, i32* %1, align 4, !tbaa !5
  %27 = load i32, i32* %2, align 4, !tbaa !5
  %28 = sub nsw i32 %26, %27
  %29 = add nsw i32 %28, 1
  %30 = icmp slt i32 %29, %26
  br i1 %30, label %31, label %37

31:                                               ; preds = %18
  %32 = add i32 %26, 1
  %33 = sub i32 %32, %27
  %34 = sext i32 %33 to i64
  br label %41

35:                                               ; preds = %41
  %36 = load i32, i32* %2, align 4, !tbaa !5
  br label %37

37:                                               ; preds = %35, %18
  %38 = phi i32 [ %36, %35 ], [ %27, %18 ]
  %39 = phi i32 [ %47, %35 ], [ %26, %18 ]
  %40 = icmp sgt i32 %39, %38
  br i1 %40, label %50, label %61

41:                                               ; preds = %31, %41
  %42 = phi i64 [ %34, %31 ], [ %46, %41 ]
  %43 = getelementptr inbounds [100 x i32], [100 x i32]* %3, i64 0, i64 %42
  %44 = load i32, i32* %43, align 4, !tbaa !5
  %45 = call i32 (i8*, ...) @printf(i8* nonnull dereferenceable(1) getelementptr inbounds ([4 x i8], [4 x i8]* @.str.2, i64 0, i64 0), i32 %44)
  %46 = add nsw i64 %42, 1
  %47 = load i32, i32* %1, align 4, !tbaa !5
  %48 = sext i32 %47 to i64
  %49 = icmp slt i64 %46, %48
  br i1 %49, label %41, label %35, !llvm.loop !11

50:                                               ; preds = %37, %50
  %51 = phi i64 [ %55, %50 ], [ 0, %37 ]
  %52 = getelementptr inbounds [100 x i32], [100 x i32]* %3, i64 0, i64 %51
  %53 = load i32, i32* %52, align 4, !tbaa !5
  %54 = call i32 (i8*, ...) @printf(i8* nonnull dereferenceable(1) getelementptr inbounds ([4 x i8], [4 x i8]* @.str.2, i64 0, i64 0), i32 %53)
  %55 = add nuw nsw i64 %51, 1
  %56 = load i32, i32* %1, align 4, !tbaa !5
  %57 = load i32, i32* %2, align 4, !tbaa !5
  %58 = sub nsw i32 %56, %57
  %59 = sext i32 %58 to i64
  %60 = icmp slt i64 %55, %59
  br i1 %60, label %50, label %61, !llvm.loop !12

61:                                               ; preds = %50, %37
  %62 = load %struct._IO_FILE*, %struct._IO_FILE** @stdin, align 8, !tbaa !13
  %63 = call i32 @getc(%struct._IO_FILE* %62) #3
  %64 = load %struct._IO_FILE*, %struct._IO_FILE** @stdin, align 8, !tbaa !13
  %65 = call i32 @getc(%struct._IO_FILE* %64) #3
  call void @llvm.lifetime.end.p0i8(i64 400, i8* nonnull %7) #3
  call void @llvm.lifetime.end.p0i8(i64 4, i8* nonnull %5) #3
  call void @llvm.lifetime.end.p0i8(i64 4, i8* nonnull %4) #3
  ret i32 0
}

; Function Attrs: argmemonly mustprogress nofree nosync nounwind willreturn
declare void @llvm.lifetime.start.p0i8(i64 immarg, i8* nocapture) #1

; Function Attrs: nofree nounwind
declare noundef i32 @__isoc99_scanf(i8* nocapture noundef readonly, ...) local_unnamed_addr #2

; Function Attrs: nofree nounwind
declare noundef i32 @printf(i8* nocapture noundef readonly, ...) local_unnamed_addr #2

; Function Attrs: argmemonly mustprogress nofree nosync nounwind willreturn
declare void @llvm.lifetime.end.p0i8(i64 immarg, i8* nocapture) #1

; Function Attrs: nofree nounwind
declare noundef i32 @getc(%struct._IO_FILE* nocapture noundef) local_unnamed_addr #2


!llvm.module.flags = !{!0, !1, !2, !3}
!llvm.ident = !{!4}

!0 = !{i32 1, !"wchar_size", i32 4}
!1 = !{i32 7, !"PIC Level", i32 2}
!2 = !{i32 7, !"PIE Level", i32 2}
!3 = !{i32 7, !"uwtable", i32 1}
!4 = !{!"clang version 13.0.0"}
!5 = !{!6, !6, i64 0}
!6 = !{!"int", !7, i64 0}
!7 = !{!"omnipotent char", !8, i64 0}
!8 = !{!"Simple C/C++ TBAA"}
!9 = distinct !{!9, !10}
!10 = !{!"llvm.loop.mustprogress"}
!11 = distinct !{!11, !10}
!12 = distinct !{!12, !10}
!13 = !{!14, !14, i64 0}
!14 = !{!"any pointer", !7, i64 0}
